; ModuleID = '57/1789.c'
source_filename = "57/1789.c"
target datalayout = "e-m:e-p270:32:32-p271:32:32-p272:64:64-i64:64-f80:128-n8:16:32:64-S128"
target triple = "x86_64-pc-linux-gnu"

@.str = private unnamed_addr constant [4 x i8] c"%d\0A\00", align 1
@.str.1 = private unnamed_addr constant [3 x i8] c"%s\00", align 1
@.str.2 = private unnamed_addr constant [3 x i8] c"%c\00", align 1
@.str.3 = private unnamed_addr constant [4 x i8] c"%c\0A\00", align 1

; Function Attrs: noinline nounwind uwtable
define dso_local i32 @main() #0 {
  %1 = alloca i32, align 4
  %2 = alloca i32, align 4
  %3 = alloca i32, align 4
  %4 = alloca i32, align 4
  %5 = alloca [50 x i8], align 16
  %6 = alloca i32, align 4
  store i32 0, i32* %1, align 4
  %7 = call i32 (i8*, ...) @__isoc99_scanf(i8* getelementptr inbounds ([4 x i8], [4 x i8]* @.str, i64 0, i64 0), i32* %2)
  store i32 0, i32* %3, align 4
  br label %8

8:                                                ; preds = %181, %0
  %9 = load i32, i32* %3, align 4
  %10 = load i32, i32* %2, align 4
  %11 = icmp slt i32 %9, %10
  br i1 %11, label %12, label %184

12:                                               ; preds = %8
  %13 = getelementptr inbounds [50 x i8], [50 x i8]* %5, i64 0, i64 0
  %14 = call i32 (i8*, ...) @__isoc99_scanf(i8* getelementptr inbounds ([3 x i8], [3 x i8]* @.str.1, i64 0, i64 0), i8* %13)
  %15 = getelementptr inbounds [50 x i8], [50 x i8]* %5, i64 0, i64 0
  %16 = call i64 @strlen(i8* %15) #3
  %17 = trunc i64 %16 to i32
  store i32 %17, i32* %4, align 4
  %18 = load i32, i32* %4, align 4
  %19 = sub nsw i32 %18, 2
  %20 = sext i32 %19 to i64
  %21 = getelementptr inbounds [50 x i8], [50 x i8]* %5, i64 0, i64 %20
  %22 = load i8, i8* %21, align 1
  %23 = sext i8 %22 to i32
  %24 = icmp eq i32 %23, 101
  br i1 %24, label %25, label %68

25:                                               ; preds = %12
  %26 = load i32, i32* %4, align 4
  %27 = sub nsw i32 %26, 1
  %28 = sext i32 %27 to i64
  %29 = getelementptr inbounds [50 x i8], [50 x i8]* %5, i64 0, i64 %28
  %30 = load i8, i8* %29, align 1
  %31 = sext i8 %30 to i32
  %32 = icmp eq i32 %31, 114
  br i1 %32, label %33, label %68

33:                                               ; preds = %25
  store i32 0, i32* %6, align 4
  br label %34

34:                                               ; preds = %46, %33
  %35 = load i32, i32* %6, align 4
  %36 = load i32, i32* %4, align 4
  %37 = sub nsw i32 %36, 3
  %38 = icmp slt i32 %35, %37
  br i1 %38, label %39, label %49

39:                                               ; preds = %34
  %40 = load i32, i32* %6, align 4
  %41 = sext i32 %40 to i64
  %42 = getelementptr inbounds [50 x i8], [50 x i8]* %5, i64 0, i64 %41
  %43 = load i8, i8* %42, align 1
  %44 = sext i8 %43 to i32
  %45 = call i32 (i8*, ...) @printf(i8* getelementptr inbounds ([3 x i8], [3 x i8]* @.str.2, i64 0, i64 0), i32 %44)
  br label %46

46:                                               ; preds = %39
  %47 = load i32, i32* %6, align 4
  %48 = add nsw i32 %47, 1
  store i32 %48, i32* %6, align 4
  br label %34

49:                                               ; preds = %34
  %50 = load i32, i32* %4, align 4
  %51 = sub nsw i32 %50, 3
  store i32 %51, i32* %6, align 4
  br label %52

52:                                               ; preds = %64, %49
  %53 = load i32, i32* %6, align 4
  %54 = load i32, i32* %4, align 4
  %55 = sub nsw i32 %54, 2
  %56 = icmp slt i32 %53, %55
  br i1 %56, label %57, label %67

57:                                               ; preds = %52
  %58 = load i32, i32* %6, align 4
  %59 = sext i32 %58 to i64
  %60 = getelementptr inbounds [50 x i8], [50 x i8]* %5, i64 0, i64 %59
  %61 = load i8, i8* %60, align 1
  %62 = sext i8 %61 to i32
  %63 = call i32 (i8*, ...) @printf(i8* getelementptr inbounds ([4 x i8], [4 x i8]* @.str.3, i64 0, i64 0), i32 %62)
  br label %64

64:                                               ; preds = %57
  %65 = load i32, i32* %6, align 4
  %66 = add nsw i32 %65, 1
  store i32 %66, i32* %6, align 4
  br label %52

67:                                               ; preds = %52
  br label %180

68:                                               ; preds = %25, %12
  %69 = load i32, i32* %4, align 4
  %70 = sub nsw i32 %69, 2
  %71 = sext i32 %70 to i64
  %72 = getelementptr inbounds [50 x i8], [50 x i8]* %5, i64 0, i64 %71
  %73 = load i8, i8* %72, align 1
  %74 = sext i8 %73 to i32
  %75 = icmp eq i32 %74, 108
  br i1 %75, label %76, label %119

76:                                               ; preds = %68
  %77 = load i32, i32* %4, align 4
  %78 = sub nsw i32 %77, 1
  %79 = sext i32 %78 to i64
  %80 = getelementptr inbounds [50 x i8], [50 x i8]* %5, i64 0, i64 %79
  %81 = load i8, i8* %80, align 1
  %82 = sext i8 %81 to i32
  %83 = icmp eq i32 %82, 121
  br i1 %83, label %84, label %119

84:                                               ; preds = %76
  store i32 0, i32* %6, align 4
  br label %85

85:                                               ; preds = %97, %84
  %86 = load i32, i32* %6, align 4
  %87 = load i32, i32* %4, align 4
  %88 = sub nsw i32 %87, 3
  %89 = icmp slt i32 %86, %88
  br i1 %89, label %90, label %100

90:                                               ; preds = %85
  %91 = load i32, i32* %6, align 4
  %92 = sext i32 %91 to i64
  %93 = getelementptr inbounds [50 x i8], [50 x i8]* %5, i64 0, i64 %92
  %94 = load i8, i8* %93, align 1
  %95 = sext i8 %94 to i32
  %96 = call i32 (i8*, ...) @printf(i8* getelementptr inbounds ([3 x i8], [3 x i8]* @.str.2, i64 0, i64 0), i32 %95)
  br label %97

97:                                               ; preds = %90
  %98 = load i32, i32* %6, align 4
  %99 = add nsw i32 %98, 1
  store i32 %99, i32* %6, align 4
  br label %85

100:                                              ; preds = %85
  %101 = load i32, i32* %4, align 4
  %102 = sub nsw i32 %101, 3
  store i32 %102, i32* %6, align 4
  br label %103

103:                                              ; preds = %115, %100
  %104 = load i32, i32* %6, align 4
  %105 = load i32, i32* %4, align 4
  %106 = sub nsw i32 %105, 2
  %107 = icmp slt i32 %104, %106
  br i1 %107, label %108, label %118

108:                                              ; preds = %103
  %109 = load i32, i32* %6, align 4
  %110 = sext i32 %109 to i64
  %111 = getelementptr inbounds [50 x i8], [50 x i8]* %5, i64 0, i64 %110
  %112 = load i8, i8* %111, align 1
  %113 = sext i8 %112 to i32
  %114 = call i32 (i8*, ...) @printf(i8* getelementptr inbounds ([4 x i8], [4 x i8]* @.str.3, i64 0, i64 0), i32 %113)
  br label %115

115:                                              ; preds = %108
  %116 = load i32, i32* %6, align 4
  %117 = add nsw i32 %116, 1
  store i32 %117, i32* %6, align 4
  br label %103

118:                                              ; preds = %103
  br label %179

119:                                              ; preds = %76, %68
  %120 = load i32, i32* %4, align 4
  %121 = sub nsw i32 %120, 3
  %122 = sext i32 %121 to i64
  %123 = getelementptr inbounds [50 x i8], [50 x i8]* %5, i64 0, i64 %122
  %124 = load i8, i8* %123, align 1
  %125 = sext i8 %124 to i32
  %126 = icmp eq i32 %125, 105
  br i1 %126, label %127, label %178

127:                                              ; preds = %119
  %128 = load i32, i32* %4, align 4
  %129 = sub nsw i32 %128, 2
  %130 = sext i32 %129 to i64
  %131 = getelementptr inbounds [50 x i8], [50 x i8]* %5, i64 0, i64 %130
  %132 = load i8, i8* %131, align 1
  %133 = sext i8 %132 to i32
  %134 = icmp eq i32 %133, 110
  br i1 %134, label %135, label %178

135:                                              ; preds = %127
  %136 = load i32, i32* %4, align 4
  %137 = sub nsw i32 %136, 1
  %138 = sext i32 %137 to i64
  %139 = getelementptr inbounds [50 x i8], [50 x i8]* %5, i64 0, i64 %138
  %140 = load i8, i8* %139, align 1
  %141 = sext i8 %140 to i32
  %142 = icmp eq i32 %141, 103
  br i1 %142, label %143, label %178

143:                                              ; preds = %135
  store i32 0, i32* %6, align 4
  br label %144

144:                                              ; preds = %156, %143
  %145 = load i32, i32* %6, align 4
  %146 = load i32, i32* %4, align 4
  %147 = sub nsw i32 %146, 4
  %148 = icmp slt i32 %145, %147
  br i1 %148, label %149, label %159

149:                                              ; preds = %144
  %150 = load i32, i32* %6, align 4
  %151 = sext i32 %150 to i64
  %152 = getelementptr inbounds [50 x i8], [50 x i8]* %5, i64 0, i64 %151
  %153 = load i8, i8* %152, align 1
  %154 = sext i8 %153 to i32
  %155 = call i32 (i8*, ...) @printf(i8* getelementptr inbounds ([3 x i8], [3 x i8]* @.str.2, i64 0, i64 0), i32 %154)
  br label %156

156:                                              ; preds = %149
  %157 = load i32, i32* %6, align 4
  %158 = add nsw i32 %157, 1
  store i32 %158, i32* %6, align 4
  br label %144

159:                                              ; preds = %144
  %160 = load i32, i32* %4, align 4
  %161 = sub nsw i32 %160, 4
  store i32 %161, i32* %6, align 4
  br label %162

162:                                              ; preds = %174, %159
  %163 = load i32, i32* %6, align 4
  %164 = load i32, i32* %4, align 4
  %165 = sub nsw i32 %164, 3
  %166 = icmp slt i32 %163, %165
  br i1 %166, label %167, label %177

167:                                              ; preds = %162
  %168 = load i32, i32* %6, align 4
  %169 = sext i32 %168 to i64
  %170 = getelementptr inbounds [50 x i8], [50 x i8]* %5, i64 0, i64 %169
  %171 = load i8, i8* %170, align 1
  %172 = sext i8 %171 to i32
  %173 = call i32 (i8*, ...) @printf(i8* getelementptr inbounds ([4 x i8], [4 x i8]* @.str.3, i64 0, i64 0), i32 %172)
  br label %174

174:                                              ; preds = %167
  %175 = load i32, i32* %6, align 4
  %176 = add nsw i32 %175, 1
  store i32 %176, i32* %6, align 4
  br label %162

177:                                              ; preds = %162
  br label %178

178:                                              ; preds = %177, %135, %127, %119
  br label %179

179:                                              ; preds = %178, %118
  br label %180

180:                                              ; preds = %179, %67
  br label %181

181:                                              ; preds = %180
  %182 = load i32, i32* %3, align 4
  %183 = add nsw i32 %182, 1
  store i32 %183, i32* %3, align 4
  br label %8

184:                                              ; preds = %8
  ret i32 0
}

declare dso_local i32 @__isoc99_scanf(i8*, ...) #1

; Function Attrs: nounwind readonly
declare dso_local i64 @strlen(i8*) #2

declare dso_local i32 @printf(i8*, ...) #1


!llvm.module.flags = !{!0}
!llvm.ident = !{!1}

!0 = !{i32 1, !"wchar_size", i32 4}
!1 = !{!"clang version 10.0.0-4ubuntu1 "}
