; ModuleID = 'source-C-CXX/56/1789.c'
source_filename = "source-C-CXX/56/1789.c"
target datalayout = "e-m:e-p270:32:32-p271:32:32-p272:64:64-i64:64-f80:128-n8:16:32:64-S128"
target triple = "x86_64-pc-linux-gnu"

@.str = private unnamed_addr constant [4 x i8] c"%d\0A\00", align 1
@.str.1 = private unnamed_addr constant [3 x i8] c"%s\00", align 1
@.str.3 = private unnamed_addr constant [4 x i8] c"%c\0A\00", align 1

; Function Attrs: nofree nounwind sspstrong uwtable
define dso_local i32 @main() local_unnamed_addr #0 {
  %1 = alloca i32, align 4
  %2 = alloca [50 x i8], align 16
  %3 = bitcast i32* %1 to i8*
  call void @llvm.lifetime.start.p0i8(i64 4, i8* nonnull %3) #5
  %4 = getelementptr inbounds [50 x i8], [50 x i8]* %2, i64 0, i64 0
  call void @llvm.lifetime.start.p0i8(i64 50, i8* nonnull %4) #5
  %5 = call i32 (i8*, ...) @__isoc99_scanf(i8* getelementptr inbounds ([4 x i8], [4 x i8]* @.str, i64 0, i64 0), i32* nonnull %1)
  %6 = load i32, i32* %1, align 4, !tbaa !5
  %7 = icmp sgt i32 %6, 0
  br i1 %7, label %8, label %98

8:                                                ; preds = %0, %94
  %9 = phi i32 [ %95, %94 ], [ 0, %0 ]
  %10 = call i32 (i8*, ...) @__isoc99_scanf(i8* getelementptr inbounds ([3 x i8], [3 x i8]* @.str.1, i64 0, i64 0), i8* nonnull %4)
  %11 = call i64 @strlen(i8* noundef nonnull %4) #6
  %12 = trunc i64 %11 to i32
  %13 = shl i64 %11, 32
  %14 = add i64 %13, -8589934592
  %15 = ashr exact i64 %14, 32
  %16 = getelementptr inbounds [50 x i8], [50 x i8]* %2, i64 0, i64 %15
  %17 = load i8, i8* %16, align 1, !tbaa !9
  switch i8 %17, label %58 [
    i8 101, label %18
    i8 108, label %38
  ]

18:                                               ; preds = %8
  %19 = shl i64 %11, 32
  %20 = add i64 %19, -4294967296
  %21 = ashr exact i64 %20, 32
  %22 = getelementptr inbounds [50 x i8], [50 x i8]* %2, i64 0, i64 %21
  %23 = load i8, i8* %22, align 1, !tbaa !9
  %24 = icmp eq i8 %23, 114
  br i1 %24, label %25, label %58

25:                                               ; preds = %18
  %26 = icmp sgt i32 %12, 3
  %27 = add i32 %12, -3
  br i1 %26, label %28, label %87

28:                                               ; preds = %25
  %29 = zext i32 %27 to i64
  br label %30

30:                                               ; preds = %28, %30
  %31 = phi i64 [ 0, %28 ], [ %36, %30 ]
  %32 = getelementptr inbounds [50 x i8], [50 x i8]* %2, i64 0, i64 %31
  %33 = load i8, i8* %32, align 1, !tbaa !9
  %34 = sext i8 %33 to i32
  %35 = call i32 @putchar(i32 %34)
  %36 = add nuw nsw i64 %31, 1
  %37 = icmp eq i64 %36, %29
  br i1 %37, label %87, label %30, !llvm.loop !10

38:                                               ; preds = %8
  %39 = shl i64 %11, 32
  %40 = add i64 %39, -4294967296
  %41 = ashr exact i64 %40, 32
  %42 = getelementptr inbounds [50 x i8], [50 x i8]* %2, i64 0, i64 %41
  %43 = load i8, i8* %42, align 1, !tbaa !9
  %44 = icmp eq i8 %43, 121
  br i1 %44, label %45, label %58

45:                                               ; preds = %38
  %46 = icmp sgt i32 %12, 3
  %47 = add i32 %12, -3
  br i1 %46, label %48, label %87

48:                                               ; preds = %45
  %49 = zext i32 %47 to i64
  br label %50

50:                                               ; preds = %48, %50
  %51 = phi i64 [ 0, %48 ], [ %56, %50 ]
  %52 = getelementptr inbounds [50 x i8], [50 x i8]* %2, i64 0, i64 %51
  %53 = load i8, i8* %52, align 1, !tbaa !9
  %54 = sext i8 %53 to i32
  %55 = call i32 @putchar(i32 %54)
  %56 = add nuw nsw i64 %51, 1
  %57 = icmp eq i64 %56, %49
  br i1 %57, label %87, label %50, !llvm.loop !12

58:                                               ; preds = %8, %18, %38
  %59 = shl i64 %11, 32
  %60 = add i64 %59, -12884901888
  %61 = ashr exact i64 %60, 32
  %62 = getelementptr inbounds [50 x i8], [50 x i8]* %2, i64 0, i64 %61
  %63 = load i8, i8* %62, align 1, !tbaa !9
  %64 = icmp eq i8 %63, 105
  %65 = icmp eq i8 %17, 110
  %66 = select i1 %64, i1 %65, i1 false
  br i1 %66, label %67, label %94

67:                                               ; preds = %58
  %68 = shl i64 %11, 32
  %69 = add i64 %68, -4294967296
  %70 = ashr exact i64 %69, 32
  %71 = getelementptr inbounds [50 x i8], [50 x i8]* %2, i64 0, i64 %70
  %72 = load i8, i8* %71, align 1, !tbaa !9
  %73 = icmp eq i8 %72, 103
  br i1 %73, label %74, label %94

74:                                               ; preds = %67
  %75 = icmp sgt i32 %12, 4
  %76 = add i32 %12, -4
  br i1 %75, label %77, label %87

77:                                               ; preds = %74
  %78 = zext i32 %76 to i64
  br label %79

79:                                               ; preds = %77, %79
  %80 = phi i64 [ 0, %77 ], [ %85, %79 ]
  %81 = getelementptr inbounds [50 x i8], [50 x i8]* %2, i64 0, i64 %80
  %82 = load i8, i8* %81, align 1, !tbaa !9
  %83 = sext i8 %82 to i32
  %84 = call i32 @putchar(i32 %83)
  %85 = add nuw nsw i64 %80, 1
  %86 = icmp eq i64 %85, %78
  br i1 %86, label %87, label %79, !llvm.loop !13

87:                                               ; preds = %50, %30, %79, %45, %25, %74
  %88 = phi i32 [ %76, %74 ], [ %27, %25 ], [ %47, %45 ], [ %76, %79 ], [ %27, %30 ], [ %47, %50 ]
  %89 = sext i32 %88 to i64
  %90 = getelementptr inbounds [50 x i8], [50 x i8]* %2, i64 0, i64 %89
  %91 = load i8, i8* %90, align 1, !tbaa !9
  %92 = sext i8 %91 to i32
  %93 = call i32 (i8*, ...) @printf(i8* nonnull dereferenceable(1) getelementptr inbounds ([4 x i8], [4 x i8]* @.str.3, i64 0, i64 0), i32 %92)
  br label %94

94:                                               ; preds = %87, %67, %58
  %95 = add nuw nsw i32 %9, 1
  %96 = load i32, i32* %1, align 4, !tbaa !5
  %97 = icmp slt i32 %95, %96
  br i1 %97, label %8, label %98, !llvm.loop !14

98:                                               ; preds = %94, %0
  call void @llvm.lifetime.end.p0i8(i64 50, i8* nonnull %4) #5
  call void @llvm.lifetime.end.p0i8(i64 4, i8* nonnull %3) #5
  ret i32 0
}

; Function Attrs: argmemonly mustprogress nofree nosync nounwind willreturn
declare void @llvm.lifetime.start.p0i8(i64 immarg, i8* nocapture) #1

; Function Attrs: nofree nounwind
declare noundef i32 @__isoc99_scanf(i8* nocapture noundef readonly, ...) local_unnamed_addr #2

; Function Attrs: argmemonly mustprogress nofree nounwind readonly willreturn
declare i64 @strlen(i8* nocapture) local_unnamed_addr #3

; Function Attrs: nofree nounwind
declare noundef i32 @printf(i8* nocapture noundef readonly, ...) local_unnamed_addr #2

; Function Attrs: argmemonly mustprogress nofree nosync nounwind willreturn
declare void @llvm.lifetime.end.p0i8(i64 immarg, i8* nocapture) #1

; Function Attrs: nofree nounwind
declare noundef i32 @putchar(i32 noundef) local_unnamed_addr #4


!llvm.module.flags = !{!0, !1, !2, !3}
!llvm.ident = !{!4}

!0 = !{i32 1, !"wchar_size", i32 4}
!1 = !{i32 7, !"PIC Level", i32 2}
!2 = !{i32 7, !"PIE Level", i32 2}
!3 = !{i32 7, !"uwtable", i32 1}
!4 = !{!"clang version 13.0.0"}
!5 = !{!6, !6, i64 0}
!6 = !{!"int", !7, i64 0}
!7 = !{!"omnipotent char", !8, i64 0}
!8 = !{!"Simple C/C++ TBAA"}
!9 = !{!7, !7, i64 0}
!10 = distinct !{!10, !11}
!11 = !{!"llvm.loop.mustprogress"}
!12 = distinct !{!12, !11}
!13 = distinct !{!13, !11}
!14 = distinct !{!14, !11}
